(lp0
(S'cppflags'
p1
ccopy_reg
_reconstructor
p2
(cino.utils
SpaceList
p3
c__builtin__
list
p4
(lp5
S'-mmcu=atmega2560'
p6
aS'-DF_CPU=16000000L'
p7
aS'-DARDUINO=105'
p8
aS'-I/usr/share/arduino/hardware/arduino/cores/arduino'
p9
aS'-ffunction-sections'
p10
aS'-fdata-sections'
p11
aS'-g'
p12
aS'-Os'
p13
aS'-w'
p14
aS'-I/usr/share/arduino/hardware/arduino/variants/mega'
p15
aS'-I/usr/share/arduino/libraries/Servo'
p16
aS'-Ilib/TimerOne'
p17
aS'-Ilib/TimerOne/config'
p18
aS'-Ilib/Omni3MD'
p19
aS'-I/usr/share/arduino/libraries/Robot_Control'
p20
aS'-I/usr/share/arduino/libraries/Robot_Control/utility'
p21
aS'-I/usr/share/arduino/hardware/arduino/cores/arduino'
p22
aS'-I/usr/share/arduino/hardware/arduino/cores/arduino/avr-libc'
p23
atp24
Rp25
tp26
a(S'cxx'
p27
S'/usr/share/arduino/hardware/tools/avr/bin/avr-g++'
p28
tp29
a(S'arduino_libraries_dir'
p30
S'/usr/share/arduino/libraries'
p31
tp32
a(S'avrdude'
p33
S'/usr/share/arduino/hardware/tools/avrdude'
p34
tp35
a(S'ar'
p36
S'/usr/share/arduino/hardware/tools/avr/bin/avr-ar'
p37
tp38
a(S'names'
p39
(dp40
S'cpp'
p41
S'%s.cpp'
p42
sS'obj'
p43
S'%s.o'
p44
sS'lib'
p45
S'lib%s.a'
p46
sS'deps'
p47
S'%s.d'
p48
stp49
a(S'ldflags'
p50
g2
(g3
g4
(lp51
g6
aS'-Wl,-Os'
p52
aS'-Wl,--gc-sections'
p53
atp54
Rp55
tp56
a(S'arduino_lib_version'
p57
g2
(cino.environment
Version
p58
c__builtin__
tuple
p59
(I1
I0
I5
tp60
tp61
Rp62
tp63
a(S'objcopy'
p64
S'/usr/share/arduino/hardware/tools/avr/bin/avr-objcopy'
p65
tp66
a(S'board_models'
p67
cino.environment
BoardModels
p68
((lp69
(lp70
S'uno'
p71
a(dp72
S'bootloader'
p73
(dp74
S'extended_fuses'
p75
S'0x05'
p76
sS'high_fuses'
p77
S'0xde'
p78
sS'low_fuses'
p79
S'0xff'
p80
sS'lock_bits'
p81
S'0x0F'
p82
sS'file'
p83
S'optiboot_atmega328.hex'
p84
sS'path'
p85
S'optiboot'
p86
sS'unlock_bits'
p87
S'0x3F'
p88
ssS'upload'
p89
(dp90
S'protocol'
p91
S'arduino'
p92
sS'maximum_size'
p93
S'32256'
p94
sS'speed'
p95
S'115200'
p96
ssS'build'
p97
(dp98
S'core'
p99
S'arduino'
p100
sS'mcu'
p101
S'atmega328p'
p102
sS'f_cpu'
p103
S'16000000L'
p104
sS'variant'
p105
S'standard'
p106
ssS'name'
p107
S'Arduino Uno'
p108
saa(lp109
S'atmega328'
p110
a(dp111
S'bootloader'
p112
(dp113
S'extended_fuses'
p114
S'0x05'
p115
sS'high_fuses'
p116
S'0xDA'
p117
sS'low_fuses'
p118
S'0xFF'
p119
sS'lock_bits'
p120
S'0x0F'
p121
sS'file'
p122
S'ATmegaBOOT_168_atmega328.hex'
p123
sS'path'
p124
S'atmega'
p125
sS'unlock_bits'
p126
S'0x3F'
p127
ssS'upload'
p128
(dp129
S'protocol'
p130
S'arduino'
p131
sS'maximum_size'
p132
S'30720'
p133
sS'speed'
p134
S'57600'
p135
ssS'build'
p136
(dp137
S'core'
p138
S'arduino'
p139
sS'mcu'
p140
S'atmega328p'
p141
sS'f_cpu'
p142
S'16000000L'
p143
sS'variant'
p144
S'standard'
p145
ssS'name'
p146
S'Arduino Duemilanove w/ ATmega328'
p147
saa(lp148
S'diecimila'
p149
a(dp150
S'bootloader'
p151
(dp152
S'extended_fuses'
p153
S'0x00'
p154
sS'high_fuses'
p155
S'0xdd'
p156
sS'low_fuses'
p157
S'0xff'
p158
sS'lock_bits'
p159
S'0x0F'
p160
sS'file'
p161
S'ATmegaBOOT_168_diecimila.hex'
p162
sS'path'
p163
S'atmega'
p164
sS'unlock_bits'
p165
S'0x3F'
p166
ssS'upload'
p167
(dp168
S'protocol'
p169
S'arduino'
p170
sS'maximum_size'
p171
S'14336'
p172
sS'speed'
p173
S'19200'
p174
ssS'build'
p175
(dp176
S'core'
p177
S'arduino'
p178
sS'mcu'
p179
S'atmega168'
p180
sS'f_cpu'
p181
S'16000000L'
p182
sS'variant'
p183
S'standard'
p184
ssS'name'
p185
S'Arduino Diecimila or Duemilanove w/ ATmega168'
p186
saa(lp187
S'nano328'
p188
a(dp189
S'bootloader'
p190
(dp191
S'extended_fuses'
p192
S'0x05'
p193
sS'high_fuses'
p194
S'0xDA'
p195
sS'low_fuses'
p196
S'0xFF'
p197
sS'lock_bits'
p198
S'0x0F'
p199
sS'file'
p200
S'ATmegaBOOT_168_atmega328.hex'
p201
sS'path'
p202
S'atmega'
p203
sS'unlock_bits'
p204
S'0x3F'
p205
ssS'upload'
p206
(dp207
S'protocol'
p208
S'arduino'
p209
sS'maximum_size'
p210
S'30720'
p211
sS'speed'
p212
S'57600'
p213
ssS'build'
p214
(dp215
S'core'
p216
S'arduino'
p217
sS'mcu'
p218
S'atmega328p'
p219
sS'f_cpu'
p220
S'16000000L'
p221
sS'variant'
p222
S'eightanaloginputs'
p223
ssS'name'
p224
S'Arduino Nano w/ ATmega328'
p225
saa(lp226
S'nano'
p227
a(dp228
S'bootloader'
p229
(dp230
S'extended_fuses'
p231
S'0x00'
p232
sS'high_fuses'
p233
S'0xdd'
p234
sS'low_fuses'
p235
S'0xff'
p236
sS'lock_bits'
p237
S'0x0F'
p238
sS'file'
p239
S'ATmegaBOOT_168_diecimila.hex'
p240
sS'path'
p241
S'atmega'
p242
sS'unlock_bits'
p243
S'0x3F'
p244
ssS'upload'
p245
(dp246
S'protocol'
p247
S'arduino'
p248
sS'maximum_size'
p249
S'14336'
p250
sS'speed'
p251
S'19200'
p252
ssS'build'
p253
(dp254
S'core'
p255
S'arduino'
p256
sS'mcu'
p257
S'atmega168'
p258
sS'f_cpu'
p259
S'16000000L'
p260
sS'variant'
p261
S'eightanaloginputs'
p262
ssS'name'
p263
S'Arduino Nano w/ ATmega168'
p264
saa(lp265
S'mega2560'
p266
a(dp267
S'bootloader'
p268
(dp269
S'extended_fuses'
p270
S'0xFD'
p271
sS'high_fuses'
p272
S'0xD8'
p273
sS'low_fuses'
p274
S'0xFF'
p275
sS'lock_bits'
p276
S'0x0F'
p277
sS'file'
p278
S'stk500boot_v2_mega2560.hex'
p279
sS'path'
p280
S'stk500v2'
p281
sS'unlock_bits'
p282
S'0x3F'
p283
ssS'upload'
p284
(dp285
S'protocol'
p286
S'wiring'
p287
sS'maximum_size'
p288
S'258048'
p289
sS'speed'
p290
S'115200'
p291
ssS'build'
p292
(dp293
S'core'
p294
S'arduino'
p295
sS'mcu'
p296
S'atmega2560'
p297
sS'f_cpu'
p298
S'16000000L'
p299
sS'variant'
p300
S'mega'
p301
ssS'name'
p302
S'Arduino Mega 2560 or Mega ADK'
p303
saa(lp304
S'mega'
p305
a(dp306
S'bootloader'
p307
(dp308
S'extended_fuses'
p309
S'0xF5'
p310
sS'high_fuses'
p311
S'0xDA'
p312
sS'low_fuses'
p313
S'0xFF'
p314
sS'lock_bits'
p315
S'0x0F'
p316
sS'file'
p317
S'ATmegaBOOT_168_atmega1280.hex'
p318
sS'path'
p319
S'atmega'
p320
sS'unlock_bits'
p321
S'0x3F'
p322
ssS'upload'
p323
(dp324
S'protocol'
p325
S'arduino'
p326
sS'maximum_size'
p327
S'126976'
p328
sS'speed'
p329
S'57600'
p330
ssS'build'
p331
(dp332
S'core'
p333
S'arduino'
p334
sS'mcu'
p335
S'atmega1280'
p336
sS'f_cpu'
p337
S'16000000L'
p338
sS'variant'
p339
S'mega'
p340
ssS'name'
p341
S'Arduino Mega (ATmega1280)'
p342
saa(lp343
S'leonardo'
p344
a(dp345
S'bootloader'
p346
(dp347
S'extended_fuses'
p348
S'0xcb'
p349
sS'high_fuses'
p350
S'0xd8'
p351
sS'low_fuses'
p352
S'0xff'
p353
sS'lock_bits'
p354
S'0x2F'
p355
sS'file'
p356
S'Caterina-Leonardo.hex'
p357
sS'path'
p358
S'caterina'
p359
sS'unlock_bits'
p360
S'0x3F'
p361
ssS'upload'
p362
(dp363
S'protocol'
p364
S'avr109'
p365
sS'maximum_size'
p366
S'28672'
p367
sS'speed'
p368
S'57600'
p369
sS'disable_flushing'
p370
S'true'
p371
ssS'build'
p372
(dp373
S'core'
p374
S'arduino'
p375
sS'f_cpu'
p376
S'16000000L'
p377
sS'vid'
p378
S'0x2341'
p379
sS'pid'
p380
S'0x8036'
p381
sS'variant'
p382
S'leonardo'
p383
sS'mcu'
p384
S'atmega32u4'
p385
ssS'name'
p386
S'Arduino Leonardo'
p387
saa(lp388
S'esplora'
p389
a(dp390
S'bootloader'
p391
(dp392
S'extended_fuses'
p393
S'0xcb'
p394
sS'high_fuses'
p395
S'0xd8'
p396
sS'low_fuses'
p397
S'0xff'
p398
sS'lock_bits'
p399
S'0x2F'
p400
sS'file'
p401
S'Caterina-Esplora.hex'
p402
sS'path'
p403
S'caterina'
p404
sS'unlock_bits'
p405
S'0x3F'
p406
ssS'upload'
p407
(dp408
S'protocol'
p409
S'avr109'
p410
sS'maximum_size'
p411
S'28672'
p412
sS'speed'
p413
S'57600'
p414
sS'disable_flushing'
p415
S'true'
p416
ssS'build'
p417
(dp418
S'core'
p419
S'arduino'
p420
sS'f_cpu'
p421
S'16000000L'
p422
sS'vid'
p423
S'0x2341'
p424
sS'pid'
p425
S'0x803C'
p426
sS'variant'
p427
S'leonardo'
p428
sS'mcu'
p429
S'atmega32u4'
p430
ssS'name'
p431
S'Arduino Esplora'
p432
saa(lp433
S'micro'
p434
a(dp435
S'bootloader'
p436
(dp437
S'extended_fuses'
p438
S'0xcb'
p439
sS'high_fuses'
p440
S'0xd8'
p441
sS'low_fuses'
p442
S'0xff'
p443
sS'lock_bits'
p444
S'0x2F'
p445
sS'file'
p446
S'Caterina-Micro.hex'
p447
sS'path'
p448
S'caterina'
p449
sS'unlock_bits'
p450
S'0x3F'
p451
ssS'upload'
p452
(dp453
S'protocol'
p454
S'avr109'
p455
sS'maximum_size'
p456
S'28672'
p457
sS'speed'
p458
S'57600'
p459
sS'disable_flushing'
p460
S'true'
p461
ssS'build'
p462
(dp463
S'core'
p464
S'arduino'
p465
sS'f_cpu'
p466
S'16000000L'
p467
sS'vid'
p468
S'0x2341'
p469
sS'pid'
p470
S'0x8037'
p471
sS'variant'
p472
S'micro'
p473
sS'mcu'
p474
S'atmega32u4'
p475
ssS'name'
p476
S'Arduino Micro'
p477
saa(lp478
S'mini328'
p479
a(dp480
S'bootloader'
p481
(dp482
S'extended_fuses'
p483
S'0x05'
p484
sS'high_fuses'
p485
S'0xd8'
p486
sS'low_fuses'
p487
S'0xff'
p488
sS'lock_bits'
p489
S'0x0F'
p490
sS'file'
p491
S'optiboot_atmega328-Mini.hex'
p492
sS'path'
p493
S'optiboot'
p494
sS'unlock_bits'
p495
S'0x3F'
p496
ssS'upload'
p497
(dp498
S'protocol'
p499
S'arduino'
p500
sS'maximum_size'
p501
S'28672'
p502
sS'speed'
p503
S'115200'
p504
ssS'build'
p505
(dp506
S'core'
p507
S'arduino'
p508
sS'mcu'
p509
S'atmega328p'
p510
sS'f_cpu'
p511
S'16000000L'
p512
sS'variant'
p513
S'eightanaloginputs'
p514
ssS'name'
p515
S'Arduino Mini w/ ATmega328'
p516
saa(lp517
S'mini'
p518
a(dp519
S'bootloader'
p520
(dp521
S'extended_fuses'
p522
S'0x00'
p523
sS'high_fuses'
p524
S'0xdd'
p525
sS'low_fuses'
p526
S'0xff'
p527
sS'lock_bits'
p528
S'0x0F'
p529
sS'file'
p530
S'ATmegaBOOT_168_ng.hex'
p531
sS'path'
p532
S'atmega'
p533
sS'unlock_bits'
p534
S'0x3F'
p535
ssS'upload'
p536
(dp537
S'protocol'
p538
S'arduino'
p539
sS'maximum_size'
p540
S'14336'
p541
sS'speed'
p542
S'19200'
p543
ssS'build'
p544
(dp545
S'core'
p546
S'arduino'
p547
sS'mcu'
p548
S'atmega168'
p549
sS'f_cpu'
p550
S'16000000L'
p551
sS'variant'
p552
S'eightanaloginputs'
p553
ssS'name'
p554
S'Arduino Mini w/ ATmega168'
p555
saa(lp556
S'ethernet'
p557
a(dp558
S'bootloader'
p559
(dp560
S'extended_fuses'
p561
S'0x05'
p562
sS'high_fuses'
p563
S'0xde'
p564
sS'low_fuses'
p565
S'0xff'
p566
sS'lock_bits'
p567
S'0x0F'
p568
sS'file'
p569
S'optiboot_atmega328.hex'
p570
sS'path'
p571
S'optiboot'
p572
sS'unlock_bits'
p573
S'0x3F'
p574
ssS'upload'
p575
(dp576
S'protocol'
p577
S'arduino'
p578
sS'maximum_size'
p579
S'32256'
p580
sS'speed'
p581
S'115200'
p582
ssS'build'
p583
(dp584
S'variant'
p585
S'standard'
p586
sS'mcu'
p587
S'atmega328p'
p588
sS'f_cpu'
p589
S'16000000L'
p590
sS'core'
p591
S'arduino'
p592
ssS'name'
p593
S'Arduino Ethernet'
p594
saa(lp595
S'fio'
p596
a(dp597
S'bootloader'
p598
(dp599
S'extended_fuses'
p600
S'0x05'
p601
sS'high_fuses'
p602
S'0xDA'
p603
sS'low_fuses'
p604
S'0xFF'
p605
sS'lock_bits'
p606
S'0x0F'
p607
sS'file'
p608
S'ATmegaBOOT_168_atmega328_pro_8MHz.hex'
p609
sS'path'
p610
S'arduino:atmega'
p611
sS'unlock_bits'
p612
S'0x3F'
p613
ssS'upload'
p614
(dp615
S'protocol'
p616
S'arduino'
p617
sS'maximum_size'
p618
S'30720'
p619
sS'speed'
p620
S'57600'
p621
ssS'build'
p622
(dp623
S'core'
p624
S'arduino'
p625
sS'mcu'
p626
S'atmega328p'
p627
sS'f_cpu'
p628
S'8000000L'
p629
sS'variant'
p630
S'eightanaloginputs'
p631
ssS'name'
p632
S'Arduino Fio'
p633
saa(lp634
S'bt328'
p635
a(dp636
S'bootloader'
p637
(dp638
S'extended_fuses'
p639
S'0x05'
p640
sS'high_fuses'
p641
S'0xd8'
p642
sS'low_fuses'
p643
S'0xff'
p644
sS'lock_bits'
p645
S'0x0F'
p646
sS'file'
p647
S'ATmegaBOOT_168_atmega328_bt.hex'
p648
sS'path'
p649
S'bt'
p650
sS'unlock_bits'
p651
S'0x3F'
p652
ssS'upload'
p653
(dp654
S'protocol'
p655
S'arduino'
p656
sS'maximum_size'
p657
S'28672'
p658
sS'speed'
p659
S'19200'
p660
sS'disable_flushing'
p661
S'true'
p662
ssS'build'
p663
(dp664
S'core'
p665
S'arduino'
p666
sS'mcu'
p667
S'atmega328p'
p668
sS'f_cpu'
p669
S'16000000L'
p670
sS'variant'
p671
S'eightanaloginputs'
p672
ssS'name'
p673
S'Arduino BT w/ ATmega328'
p674
saa(lp675
S'bt'
p676
a(dp677
S'bootloader'
p678
(dp679
S'extended_fuses'
p680
S'0x00'
p681
sS'high_fuses'
p682
S'0xdd'
p683
sS'low_fuses'
p684
S'0xff'
p685
sS'lock_bits'
p686
S'0x0F'
p687
sS'file'
p688
S'ATmegaBOOT_168.hex'
p689
sS'path'
p690
S'bt'
p691
sS'unlock_bits'
p692
S'0x3F'
p693
ssS'upload'
p694
(dp695
S'protocol'
p696
S'arduino'
p697
sS'maximum_size'
p698
S'14336'
p699
sS'speed'
p700
S'19200'
p701
sS'disable_flushing'
p702
S'true'
p703
ssS'build'
p704
(dp705
S'core'
p706
S'arduino'
p707
sS'mcu'
p708
S'atmega168'
p709
sS'f_cpu'
p710
S'16000000L'
p711
sS'variant'
p712
S'eightanaloginputs'
p713
ssS'name'
p714
S'Arduino BT w/ ATmega168'
p715
saa(lp716
S'LilyPadUSB'
p717
a(dp718
S'bootloader'
p719
(dp720
S'extended_fuses'
p721
S'0xce'
p722
sS'high_fuses'
p723
S'0xd8'
p724
sS'low_fuses'
p725
S'0xff'
p726
sS'lock_bits'
p727
S'0x2F'
p728
sS'file'
p729
S'Caterina-LilyPadUSB.hex'
p730
sS'path'
p731
S'caterina-LilyPadUSB'
p732
sS'unlock_bits'
p733
S'0x3F'
p734
ssS'upload'
p735
(dp736
S'protocol'
p737
S'avr109'
p738
sS'maximum_size'
p739
S'28672'
p740
sS'speed'
p741
S'57600'
p742
sS'disable_flushing'
p743
S'true'
p744
ssS'build'
p745
(dp746
S'core'
p747
S'arduino'
p748
sS'f_cpu'
p749
S'8000000L'
p750
sS'vid'
p751
S'0x1B4F'
p752
sS'pid'
p753
S'0x9208'
p754
sS'variant'
p755
S'leonardo'
p756
sS'mcu'
p757
S'atmega32u4'
p758
ssS'name'
p759
S'LilyPad Arduino USB'
p760
saa(lp761
S'lilypad328'
p762
a(dp763
S'bootloader'
p764
(dp765
S'extended_fuses'
p766
S'0x05'
p767
sS'high_fuses'
p768
S'0xDA'
p769
sS'low_fuses'
p770
S'0xFF'
p771
sS'lock_bits'
p772
S'0x0F'
p773
sS'file'
p774
S'ATmegaBOOT_168_atmega328_pro_8MHz.hex'
p775
sS'path'
p776
S'atmega'
p777
sS'unlock_bits'
p778
S'0x3F'
p779
ssS'upload'
p780
(dp781
S'protocol'
p782
S'arduino'
p783
sS'maximum_size'
p784
S'30720'
p785
sS'speed'
p786
S'57600'
p787
ssS'build'
p788
(dp789
S'core'
p790
S'arduino'
p791
sS'mcu'
p792
S'atmega328p'
p793
sS'f_cpu'
p794
S'8000000L'
p795
sS'variant'
p796
S'standard'
p797
ssS'name'
p798
S'LilyPad Arduino w/ ATmega328'
p799
saa(lp800
S'lilypad'
p801
a(dp802
S'bootloader'
p803
(dp804
S'extended_fuses'
p805
S'0x00'
p806
sS'high_fuses'
p807
S'0xdd'
p808
sS'low_fuses'
p809
S'0xe2'
p810
sS'lock_bits'
p811
S'0x0F'
p812
sS'file'
p813
S'LilyPadBOOT_168.hex'
p814
sS'path'
p815
S'lilypad'
p816
sS'unlock_bits'
p817
S'0x3F'
p818
ssS'upload'
p819
(dp820
S'protocol'
p821
S'arduino'
p822
sS'maximum_size'
p823
S'14336'
p824
sS'speed'
p825
S'19200'
p826
ssS'build'
p827
(dp828
S'core'
p829
S'arduino'
p830
sS'mcu'
p831
S'atmega168'
p832
sS'f_cpu'
p833
S'8000000L'
p834
sS'variant'
p835
S'standard'
p836
ssS'name'
p837
S'LilyPad Arduino w/ ATmega168'
p838
saa(lp839
S'pro5v328'
p840
a(dp841
S'bootloader'
p842
(dp843
S'extended_fuses'
p844
S'0x05'
p845
sS'high_fuses'
p846
S'0xDA'
p847
sS'low_fuses'
p848
S'0xFF'
p849
sS'lock_bits'
p850
S'0x0F'
p851
sS'file'
p852
S'ATmegaBOOT_168_atmega328.hex'
p853
sS'path'
p854
S'atmega'
p855
sS'unlock_bits'
p856
S'0x3F'
p857
ssS'upload'
p858
(dp859
S'protocol'
p860
S'arduino'
p861
sS'maximum_size'
p862
S'30720'
p863
sS'speed'
p864
S'57600'
p865
ssS'build'
p866
(dp867
S'core'
p868
S'arduino'
p869
sS'mcu'
p870
S'atmega328p'
p871
sS'f_cpu'
p872
S'16000000L'
p873
sS'variant'
p874
S'standard'
p875
ssS'name'
p876
S'Arduino Pro or Pro Mini (5V, 16 MHz) w/ ATmega328'
p877
saa(lp878
S'pro5v'
p879
a(dp880
S'bootloader'
p881
(dp882
S'extended_fuses'
p883
S'0x00'
p884
sS'high_fuses'
p885
S'0xdd'
p886
sS'low_fuses'
p887
S'0xff'
p888
sS'lock_bits'
p889
S'0x0F'
p890
sS'file'
p891
S'ATmegaBOOT_168_diecimila.hex'
p892
sS'path'
p893
S'atmega'
p894
sS'unlock_bits'
p895
S'0x3F'
p896
ssS'upload'
p897
(dp898
S'protocol'
p899
S'arduino'
p900
sS'maximum_size'
p901
S'14336'
p902
sS'speed'
p903
S'19200'
p904
ssS'build'
p905
(dp906
S'core'
p907
S'arduino'
p908
sS'mcu'
p909
S'atmega168'
p910
sS'f_cpu'
p911
S'16000000L'
p912
sS'variant'
p913
S'standard'
p914
ssS'name'
p915
S'Arduino Pro or Pro Mini (5V, 16 MHz) w/ ATmega168'
p916
saa(lp917
S'pro328'
p918
a(dp919
S'bootloader'
p920
(dp921
S'extended_fuses'
p922
S'0x05'
p923
sS'high_fuses'
p924
S'0xDA'
p925
sS'low_fuses'
p926
S'0xFF'
p927
sS'lock_bits'
p928
S'0x0F'
p929
sS'file'
p930
S'ATmegaBOOT_168_atmega328_pro_8MHz.hex'
p931
sS'path'
p932
S'atmega'
p933
sS'unlock_bits'
p934
S'0x3F'
p935
ssS'upload'
p936
(dp937
S'protocol'
p938
S'arduino'
p939
sS'maximum_size'
p940
S'30720'
p941
sS'speed'
p942
S'57600'
p943
ssS'build'
p944
(dp945
S'core'
p946
S'arduino'
p947
sS'mcu'
p948
S'atmega328p'
p949
sS'f_cpu'
p950
S'8000000L'
p951
sS'variant'
p952
S'standard'
p953
ssS'name'
p954
S'Arduino Pro or Pro Mini (3.3V, 8 MHz) w/ ATmega328'
p955
saa(lp956
S'pro'
p957
a(dp958
S'bootloader'
p959
(dp960
S'extended_fuses'
p961
S'0x00'
p962
sS'high_fuses'
p963
S'0xdd'
p964
sS'low_fuses'
p965
S'0xc6'
p966
sS'lock_bits'
p967
S'0x0F'
p968
sS'file'
p969
S'ATmegaBOOT_168_pro_8MHz.hex'
p970
sS'path'
p971
S'atmega'
p972
sS'unlock_bits'
p973
S'0x3F'
p974
ssS'upload'
p975
(dp976
S'protocol'
p977
S'arduino'
p978
sS'maximum_size'
p979
S'14336'
p980
sS'speed'
p981
S'19200'
p982
ssS'build'
p983
(dp984
S'core'
p985
S'arduino'
p986
sS'mcu'
p987
S'atmega168'
p988
sS'f_cpu'
p989
S'8000000L'
p990
sS'variant'
p991
S'standard'
p992
ssS'name'
p993
S'Arduino Pro or Pro Mini (3.3V, 8 MHz) w/ ATmega168'
p994
saa(lp995
S'atmega168'
p996
a(dp997
S'bootloader'
p998
(dp999
S'extended_fuses'
p1000
S'0x00'
p1001
sS'high_fuses'
p1002
S'0xdd'
p1003
sS'low_fuses'
p1004
S'0xff'
p1005
sS'lock_bits'
p1006
S'0x0F'
p1007
sS'file'
p1008
S'ATmegaBOOT_168_ng.hex'
p1009
sS'path'
p1010
S'atmega'
p1011
sS'unlock_bits'
p1012
S'0x3F'
p1013
ssS'upload'
p1014
(dp1015
S'protocol'
p1016
S'arduino'
p1017
sS'maximum_size'
p1018
S'14336'
p1019
sS'speed'
p1020
S'19200'
p1021
ssS'build'
p1022
(dp1023
S'core'
p1024
S'arduino'
p1025
sS'mcu'
p1026
S'atmega168'
p1027
sS'f_cpu'
p1028
S'16000000L'
p1029
sS'variant'
p1030
S'standard'
p1031
ssS'name'
p1032
S'Arduino NG or older w/ ATmega168'
p1033
saa(lp1034
S'atmega8'
p1035
a(dp1036
S'bootloader'
p1037
(dp1038
S'high_fuses'
p1039
S'0xca'
p1040
sS'low_fuses'
p1041
S'0xdf'
p1042
sS'lock_bits'
p1043
S'0x0F'
p1044
sS'file'
p1045
S'ATmegaBOOT-prod-firmware-2009-11-07.hex'
p1046
sS'path'
p1047
S'atmega8'
p1048
sS'unlock_bits'
p1049
S'0x3F'
p1050
ssS'upload'
p1051
(dp1052
S'protocol'
p1053
S'arduino'
p1054
sS'maximum_size'
p1055
S'7168'
p1056
sS'speed'
p1057
S'19200'
p1058
ssS'build'
p1059
(dp1060
S'core'
p1061
S'arduino'
p1062
sS'mcu'
p1063
S'atmega8'
p1064
sS'f_cpu'
p1065
S'16000000L'
p1066
sS'variant'
p1067
S'standard'
p1068
ssS'name'
p1069
S'Arduino NG or older w/ ATmega8'
p1070
saa(lp1071
S'robotControl'
p1072
a(dp1073
S'bootloader'
p1074
(dp1075
S'extended_fuses'
p1076
S'0xcb'
p1077
sS'high_fuses'
p1078
S'0xd8'
p1079
sS'low_fuses'
p1080
S'0xff'
p1081
sS'lock_bits'
p1082
S'0x2F'
p1083
sS'file'
p1084
S'Caterina-Robot-Control.hex'
p1085
sS'path'
p1086
S'caterina-Arduino_Robot'
p1087
sS'unlock_bits'
p1088
S'0x3F'
p1089
ssS'upload'
p1090
(dp1091
S'protocol'
p1092
S'avr109'
p1093
sS'maximum_size'
p1094
S'28672'
p1095
sS'speed'
p1096
S'57600'
p1097
sS'disable_flushing'
p1098
S'true'
p1099
ssS'build'
p1100
(dp1101
S'core'
p1102
S'robot'
p1103
sS'f_cpu'
p1104
S'16000000L'
p1105
sS'vid'
p1106
S'0x2341'
p1107
sS'pid'
p1108
S'0x8038'
p1109
sS'variant'
p1110
S'robot_control'
p1111
sS'mcu'
p1112
S'atmega32u4'
p1113
ssS'name'
p1114
S'Arduino Robot Control'
p1115
saa(lp1116
S'robotMotor'
p1117
a(dp1118
S'bootloader'
p1119
(dp1120
S'extended_fuses'
p1121
S'0xcb'
p1122
sS'high_fuses'
p1123
S'0xd8'
p1124
sS'low_fuses'
p1125
S'0xff'
p1126
sS'lock_bits'
p1127
S'0x2F'
p1128
sS'file'
p1129
S'Caterina-Robot-Motor.hex'
p1130
sS'path'
p1131
S'caterina-Arduino_Robot'
p1132
sS'unlock_bits'
p1133
S'0x3F'
p1134
ssS'upload'
p1135
(dp1136
S'protocol'
p1137
S'avr109'
p1138
sS'maximum_size'
p1139
S'28672'
p1140
sS'speed'
p1141
S'57600'
p1142
sS'disable_flushing'
p1143
S'true'
p1144
ssS'build'
p1145
(dp1146
S'core'
p1147
S'robot'
p1148
sS'f_cpu'
p1149
S'16000000L'
p1150
sS'vid'
p1151
S'0x2341'
p1152
sS'pid'
p1153
S'0x8039'
p1154
sS'variant'
p1155
S'robot_motor'
p1156
sS'mcu'
p1157
S'atmega32u4'
p1158
ssS'name'
p1159
S'Arduino Robot Motor'
p1160
saatp1161
Rp1162
(dp1163
S'default'
p1164
S'uno'
p1165
sbtp1166
a(S'used_libs'
p1167
(lp1168
S'/usr/share/arduino/libraries/Servo'
p1169
aS'lib/TimerOne'
p1170
aS'lib/Omni3MD'
p1171
aS'/usr/share/arduino/libraries/Robot_Control'
p1172
aS'/usr/share/arduino/hardware/arduino/cores/arduino'
p1173
atp1174
a(S'make'
p1175
S'/usr/share/arduino/hardware/tools/avr/bin/make'
p1176
tp1177
a(S'build_dir'
p1178
S'.build/mega2560'
p1179
tp1180
a(S'cc'
p1181
S'/usr/share/arduino/hardware/tools/avr/bin/avr-gcc'
p1182
tp1183
a(S'cflags'
p1184
g2
(g3
g4
(lp1185
tp1186
Rp1187
tp1188
a(S'cxxflags'
p1189
g2
(g3
g4
(lp1190
S'-fno-exceptions'
p1191
atp1192
Rp1193
tp1194
a(S'arduino_variants_dir'
p1195
S'/usr/share/arduino/hardware/arduino/variants'
p1196
tp1197
a(S'stty'
p1198
S'/bin/stty'
p1199
tp1200
a(S'version.txt'
p1201
S'/usr/share/arduino/lib/version.txt'
p1202
tp1203
a(S'arduino_core_dir'
p1204
g1173
tp1205
a(S'boards.txt'
p1206
S'/usr/share/arduino/hardware/arduino/boards.txt'
p1207
tp1208
a(S'avrdude.conf'
p1209
S'/usr/share/arduino/hardware/tools/avrdude.conf'
p1210
tp1211
a(g47
g2
(g3
g4
(lp1212
S'.build/mega2560/src/dependencies.d'
p1213
aS'.build/mega2560/arduino/dependencies.d'
p1214
aS'.build/mega2560/Servo/dependencies.d'
p1215
aS'.build/mega2560/Robot_Control/dependencies.d'
p1216
aS'.build/mega2560/TimerOne/dependencies.d'
p1217
aS'.build/mega2560/Omni3MD/dependencies.d'
p1218
atp1219
Rp1220
tp1221
a.