(lp0
(S'cppflags'
p1
ccopy_reg
_reconstructor
p2
(cino.utils
SpaceList
p3
c__builtin__
list
p4
(lp5
S'-mmcu=atmega2560'
p6
aS'-DF_CPU=16000000L'
p7
aS'-DARDUINO=105'
p8
aS'-I/usr/share/arduino/hardware/arduino/cores/arduino'
p9
aS'-ffunction-sections'
p10
aS'-fdata-sections'
p11
aS'-g'
p12
aS'-Os'
p13
aS'-w'
p14
aS'-I/usr/share/arduino/hardware/arduino/variants/mega'
p15
aS'-I/usr/share/arduino/libraries/Servo'
p16
aS'-I/usr/share/arduino/libraries/Servo/src'
p17
aS'-I/usr/share/arduino/libraries/Servo/src/avr'
p18
aS'-I/usr/share/arduino/libraries/Servo/src/samd'
p19
aS'-I/usr/share/arduino/libraries/Servo/src/sam'
p20
aS'-Ilib/TimerOne'
p21
aS'-Ilib/TimerOne/config'
p22
aS'-Ilib/Omni3MD'
p23
aS'-I/usr/share/arduino/libraries/Wire'
p24
aS'-I/usr/share/arduino/libraries/Wire/utility'
p25
aS'-I/usr/share/arduino/hardware/arduino/cores/arduino'
p26
aS'-I/usr/share/arduino/hardware/arduino/cores/arduino/avr-libc'
p27
atp28
Rp29
tp30
a(S'cxx'
p31
S'/usr/share/arduino/hardware/tools/avr/bin/avr-g++'
p32
tp33
a(S'arduino_libraries_dir'
p34
S'/usr/share/arduino/libraries'
p35
tp36
a(S'avrdude'
p37
S'/usr/share/arduino/hardware/tools/avrdude'
p38
tp39
a(S'ar'
p40
S'/usr/share/arduino/hardware/tools/avr/bin/avr-ar'
p41
tp42
a(S'names'
p43
(dp44
S'cpp'
p45
S'%s.cpp'
p46
sS'obj'
p47
S'%s.o'
p48
sS'lib'
p49
S'lib%s.a'
p50
sS'deps'
p51
S'%s.d'
p52
stp53
a(S'ldflags'
p54
g2
(g3
g4
(lp55
g6
aS'-Wl,-Os'
p56
aS'-Wl,--gc-sections'
p57
atp58
Rp59
tp60
a(S'arduino_lib_version'
p61
g2
(cino.environment
Version
p62
c__builtin__
tuple
p63
(I1
I0
I5
tp64
tp65
Rp66
tp67
a(S'objcopy'
p68
S'/usr/share/arduino/hardware/tools/avr/bin/avr-objcopy'
p69
tp70
a(S'board_models'
p71
cino.environment
BoardModels
p72
((lp73
(lp74
S'uno'
p75
a(dp76
S'bootloader'
p77
(dp78
S'extended_fuses'
p79
S'0x05'
p80
sS'high_fuses'
p81
S'0xde'
p82
sS'low_fuses'
p83
S'0xff'
p84
sS'lock_bits'
p85
S'0x0F'
p86
sS'file'
p87
S'optiboot_atmega328.hex'
p88
sS'path'
p89
S'optiboot'
p90
sS'unlock_bits'
p91
S'0x3F'
p92
ssS'upload'
p93
(dp94
S'protocol'
p95
S'arduino'
p96
sS'maximum_size'
p97
S'32256'
p98
sS'speed'
p99
S'115200'
p100
ssS'build'
p101
(dp102
S'core'
p103
S'arduino'
p104
sS'mcu'
p105
S'atmega328p'
p106
sS'f_cpu'
p107
S'16000000L'
p108
sS'variant'
p109
S'standard'
p110
ssS'name'
p111
S'Arduino Uno'
p112
saa(lp113
S'atmega328'
p114
a(dp115
S'bootloader'
p116
(dp117
S'extended_fuses'
p118
S'0x05'
p119
sS'high_fuses'
p120
S'0xDA'
p121
sS'low_fuses'
p122
S'0xFF'
p123
sS'lock_bits'
p124
S'0x0F'
p125
sS'file'
p126
S'ATmegaBOOT_168_atmega328.hex'
p127
sS'path'
p128
S'atmega'
p129
sS'unlock_bits'
p130
S'0x3F'
p131
ssS'upload'
p132
(dp133
S'protocol'
p134
S'arduino'
p135
sS'maximum_size'
p136
S'30720'
p137
sS'speed'
p138
S'57600'
p139
ssS'build'
p140
(dp141
S'core'
p142
S'arduino'
p143
sS'mcu'
p144
S'atmega328p'
p145
sS'f_cpu'
p146
S'16000000L'
p147
sS'variant'
p148
S'standard'
p149
ssS'name'
p150
S'Arduino Duemilanove w/ ATmega328'
p151
saa(lp152
S'diecimila'
p153
a(dp154
S'bootloader'
p155
(dp156
S'extended_fuses'
p157
S'0x00'
p158
sS'high_fuses'
p159
S'0xdd'
p160
sS'low_fuses'
p161
S'0xff'
p162
sS'lock_bits'
p163
S'0x0F'
p164
sS'file'
p165
S'ATmegaBOOT_168_diecimila.hex'
p166
sS'path'
p167
S'atmega'
p168
sS'unlock_bits'
p169
S'0x3F'
p170
ssS'upload'
p171
(dp172
S'protocol'
p173
S'arduino'
p174
sS'maximum_size'
p175
S'14336'
p176
sS'speed'
p177
S'19200'
p178
ssS'build'
p179
(dp180
S'core'
p181
S'arduino'
p182
sS'mcu'
p183
S'atmega168'
p184
sS'f_cpu'
p185
S'16000000L'
p186
sS'variant'
p187
S'standard'
p188
ssS'name'
p189
S'Arduino Diecimila or Duemilanove w/ ATmega168'
p190
saa(lp191
S'nano328'
p192
a(dp193
S'bootloader'
p194
(dp195
S'extended_fuses'
p196
S'0x05'
p197
sS'high_fuses'
p198
S'0xDA'
p199
sS'low_fuses'
p200
S'0xFF'
p201
sS'lock_bits'
p202
S'0x0F'
p203
sS'file'
p204
S'ATmegaBOOT_168_atmega328.hex'
p205
sS'path'
p206
S'atmega'
p207
sS'unlock_bits'
p208
S'0x3F'
p209
ssS'upload'
p210
(dp211
S'protocol'
p212
S'arduino'
p213
sS'maximum_size'
p214
S'30720'
p215
sS'speed'
p216
S'57600'
p217
ssS'build'
p218
(dp219
S'core'
p220
S'arduino'
p221
sS'mcu'
p222
S'atmega328p'
p223
sS'f_cpu'
p224
S'16000000L'
p225
sS'variant'
p226
S'eightanaloginputs'
p227
ssS'name'
p228
S'Arduino Nano w/ ATmega328'
p229
saa(lp230
S'nano'
p231
a(dp232
S'bootloader'
p233
(dp234
S'extended_fuses'
p235
S'0x00'
p236
sS'high_fuses'
p237
S'0xdd'
p238
sS'low_fuses'
p239
S'0xff'
p240
sS'lock_bits'
p241
S'0x0F'
p242
sS'file'
p243
S'ATmegaBOOT_168_diecimila.hex'
p244
sS'path'
p245
S'atmega'
p246
sS'unlock_bits'
p247
S'0x3F'
p248
ssS'upload'
p249
(dp250
S'protocol'
p251
S'arduino'
p252
sS'maximum_size'
p253
S'14336'
p254
sS'speed'
p255
S'19200'
p256
ssS'build'
p257
(dp258
S'core'
p259
S'arduino'
p260
sS'mcu'
p261
S'atmega168'
p262
sS'f_cpu'
p263
S'16000000L'
p264
sS'variant'
p265
S'eightanaloginputs'
p266
ssS'name'
p267
S'Arduino Nano w/ ATmega168'
p268
saa(lp269
S'mega2560'
p270
a(dp271
S'bootloader'
p272
(dp273
S'extended_fuses'
p274
S'0xFD'
p275
sS'high_fuses'
p276
S'0xD8'
p277
sS'low_fuses'
p278
S'0xFF'
p279
sS'lock_bits'
p280
S'0x0F'
p281
sS'file'
p282
S'stk500boot_v2_mega2560.hex'
p283
sS'path'
p284
S'stk500v2'
p285
sS'unlock_bits'
p286
S'0x3F'
p287
ssS'upload'
p288
(dp289
S'protocol'
p290
S'wiring'
p291
sS'maximum_size'
p292
S'258048'
p293
sS'speed'
p294
S'115200'
p295
ssS'build'
p296
(dp297
S'core'
p298
S'arduino'
p299
sS'mcu'
p300
S'atmega2560'
p301
sS'f_cpu'
p302
S'16000000L'
p303
sS'variant'
p304
S'mega'
p305
ssS'name'
p306
S'Arduino Mega 2560 or Mega ADK'
p307
saa(lp308
S'mega'
p309
a(dp310
S'bootloader'
p311
(dp312
S'extended_fuses'
p313
S'0xF5'
p314
sS'high_fuses'
p315
S'0xDA'
p316
sS'low_fuses'
p317
S'0xFF'
p318
sS'lock_bits'
p319
S'0x0F'
p320
sS'file'
p321
S'ATmegaBOOT_168_atmega1280.hex'
p322
sS'path'
p323
S'atmega'
p324
sS'unlock_bits'
p325
S'0x3F'
p326
ssS'upload'
p327
(dp328
S'protocol'
p329
S'arduino'
p330
sS'maximum_size'
p331
S'126976'
p332
sS'speed'
p333
S'57600'
p334
ssS'build'
p335
(dp336
S'core'
p337
S'arduino'
p338
sS'mcu'
p339
S'atmega1280'
p340
sS'f_cpu'
p341
S'16000000L'
p342
sS'variant'
p343
S'mega'
p344
ssS'name'
p345
S'Arduino Mega (ATmega1280)'
p346
saa(lp347
S'leonardo'
p348
a(dp349
S'bootloader'
p350
(dp351
S'extended_fuses'
p352
S'0xcb'
p353
sS'high_fuses'
p354
S'0xd8'
p355
sS'low_fuses'
p356
S'0xff'
p357
sS'lock_bits'
p358
S'0x2F'
p359
sS'file'
p360
S'Caterina-Leonardo.hex'
p361
sS'path'
p362
S'caterina'
p363
sS'unlock_bits'
p364
S'0x3F'
p365
ssS'upload'
p366
(dp367
S'protocol'
p368
S'avr109'
p369
sS'maximum_size'
p370
S'28672'
p371
sS'speed'
p372
S'57600'
p373
sS'disable_flushing'
p374
S'true'
p375
ssS'build'
p376
(dp377
S'core'
p378
S'arduino'
p379
sS'f_cpu'
p380
S'16000000L'
p381
sS'vid'
p382
S'0x2341'
p383
sS'pid'
p384
S'0x8036'
p385
sS'variant'
p386
S'leonardo'
p387
sS'mcu'
p388
S'atmega32u4'
p389
ssS'name'
p390
S'Arduino Leonardo'
p391
saa(lp392
S'esplora'
p393
a(dp394
S'bootloader'
p395
(dp396
S'extended_fuses'
p397
S'0xcb'
p398
sS'high_fuses'
p399
S'0xd8'
p400
sS'low_fuses'
p401
S'0xff'
p402
sS'lock_bits'
p403
S'0x2F'
p404
sS'file'
p405
S'Caterina-Esplora.hex'
p406
sS'path'
p407
S'caterina'
p408
sS'unlock_bits'
p409
S'0x3F'
p410
ssS'upload'
p411
(dp412
S'protocol'
p413
S'avr109'
p414
sS'maximum_size'
p415
S'28672'
p416
sS'speed'
p417
S'57600'
p418
sS'disable_flushing'
p419
S'true'
p420
ssS'build'
p421
(dp422
S'core'
p423
S'arduino'
p424
sS'f_cpu'
p425
S'16000000L'
p426
sS'vid'
p427
S'0x2341'
p428
sS'pid'
p429
S'0x803C'
p430
sS'variant'
p431
S'leonardo'
p432
sS'mcu'
p433
S'atmega32u4'
p434
ssS'name'
p435
S'Arduino Esplora'
p436
saa(lp437
S'micro'
p438
a(dp439
S'bootloader'
p440
(dp441
S'extended_fuses'
p442
S'0xcb'
p443
sS'high_fuses'
p444
S'0xd8'
p445
sS'low_fuses'
p446
S'0xff'
p447
sS'lock_bits'
p448
S'0x2F'
p449
sS'file'
p450
S'Caterina-Micro.hex'
p451
sS'path'
p452
S'caterina'
p453
sS'unlock_bits'
p454
S'0x3F'
p455
ssS'upload'
p456
(dp457
S'protocol'
p458
S'avr109'
p459
sS'maximum_size'
p460
S'28672'
p461
sS'speed'
p462
S'57600'
p463
sS'disable_flushing'
p464
S'true'
p465
ssS'build'
p466
(dp467
S'core'
p468
S'arduino'
p469
sS'f_cpu'
p470
S'16000000L'
p471
sS'vid'
p472
S'0x2341'
p473
sS'pid'
p474
S'0x8037'
p475
sS'variant'
p476
S'micro'
p477
sS'mcu'
p478
S'atmega32u4'
p479
ssS'name'
p480
S'Arduino Micro'
p481
saa(lp482
S'mini328'
p483
a(dp484
S'bootloader'
p485
(dp486
S'extended_fuses'
p487
S'0x05'
p488
sS'high_fuses'
p489
S'0xd8'
p490
sS'low_fuses'
p491
S'0xff'
p492
sS'lock_bits'
p493
S'0x0F'
p494
sS'file'
p495
S'optiboot_atmega328-Mini.hex'
p496
sS'path'
p497
S'optiboot'
p498
sS'unlock_bits'
p499
S'0x3F'
p500
ssS'upload'
p501
(dp502
S'protocol'
p503
S'arduino'
p504
sS'maximum_size'
p505
S'28672'
p506
sS'speed'
p507
S'115200'
p508
ssS'build'
p509
(dp510
S'core'
p511
S'arduino'
p512
sS'mcu'
p513
S'atmega328p'
p514
sS'f_cpu'
p515
S'16000000L'
p516
sS'variant'
p517
S'eightanaloginputs'
p518
ssS'name'
p519
S'Arduino Mini w/ ATmega328'
p520
saa(lp521
S'mini'
p522
a(dp523
S'bootloader'
p524
(dp525
S'extended_fuses'
p526
S'0x00'
p527
sS'high_fuses'
p528
S'0xdd'
p529
sS'low_fuses'
p530
S'0xff'
p531
sS'lock_bits'
p532
S'0x0F'
p533
sS'file'
p534
S'ATmegaBOOT_168_ng.hex'
p535
sS'path'
p536
S'atmega'
p537
sS'unlock_bits'
p538
S'0x3F'
p539
ssS'upload'
p540
(dp541
S'protocol'
p542
S'arduino'
p543
sS'maximum_size'
p544
S'14336'
p545
sS'speed'
p546
S'19200'
p547
ssS'build'
p548
(dp549
S'core'
p550
S'arduino'
p551
sS'mcu'
p552
S'atmega168'
p553
sS'f_cpu'
p554
S'16000000L'
p555
sS'variant'
p556
S'eightanaloginputs'
p557
ssS'name'
p558
S'Arduino Mini w/ ATmega168'
p559
saa(lp560
S'ethernet'
p561
a(dp562
S'bootloader'
p563
(dp564
S'extended_fuses'
p565
S'0x05'
p566
sS'high_fuses'
p567
S'0xde'
p568
sS'low_fuses'
p569
S'0xff'
p570
sS'lock_bits'
p571
S'0x0F'
p572
sS'file'
p573
S'optiboot_atmega328.hex'
p574
sS'path'
p575
S'optiboot'
p576
sS'unlock_bits'
p577
S'0x3F'
p578
ssS'upload'
p579
(dp580
S'protocol'
p581
S'arduino'
p582
sS'maximum_size'
p583
S'32256'
p584
sS'speed'
p585
S'115200'
p586
ssS'build'
p587
(dp588
S'variant'
p589
S'standard'
p590
sS'mcu'
p591
S'atmega328p'
p592
sS'f_cpu'
p593
S'16000000L'
p594
sS'core'
p595
S'arduino'
p596
ssS'name'
p597
S'Arduino Ethernet'
p598
saa(lp599
S'fio'
p600
a(dp601
S'bootloader'
p602
(dp603
S'extended_fuses'
p604
S'0x05'
p605
sS'high_fuses'
p606
S'0xDA'
p607
sS'low_fuses'
p608
S'0xFF'
p609
sS'lock_bits'
p610
S'0x0F'
p611
sS'file'
p612
S'ATmegaBOOT_168_atmega328_pro_8MHz.hex'
p613
sS'path'
p614
S'arduino:atmega'
p615
sS'unlock_bits'
p616
S'0x3F'
p617
ssS'upload'
p618
(dp619
S'protocol'
p620
S'arduino'
p621
sS'maximum_size'
p622
S'30720'
p623
sS'speed'
p624
S'57600'
p625
ssS'build'
p626
(dp627
S'core'
p628
S'arduino'
p629
sS'mcu'
p630
S'atmega328p'
p631
sS'f_cpu'
p632
S'8000000L'
p633
sS'variant'
p634
S'eightanaloginputs'
p635
ssS'name'
p636
S'Arduino Fio'
p637
saa(lp638
S'bt328'
p639
a(dp640
S'bootloader'
p641
(dp642
S'extended_fuses'
p643
S'0x05'
p644
sS'high_fuses'
p645
S'0xd8'
p646
sS'low_fuses'
p647
S'0xff'
p648
sS'lock_bits'
p649
S'0x0F'
p650
sS'file'
p651
S'ATmegaBOOT_168_atmega328_bt.hex'
p652
sS'path'
p653
S'bt'
p654
sS'unlock_bits'
p655
S'0x3F'
p656
ssS'upload'
p657
(dp658
S'protocol'
p659
S'arduino'
p660
sS'maximum_size'
p661
S'28672'
p662
sS'speed'
p663
S'19200'
p664
sS'disable_flushing'
p665
S'true'
p666
ssS'build'
p667
(dp668
S'core'
p669
S'arduino'
p670
sS'mcu'
p671
S'atmega328p'
p672
sS'f_cpu'
p673
S'16000000L'
p674
sS'variant'
p675
S'eightanaloginputs'
p676
ssS'name'
p677
S'Arduino BT w/ ATmega328'
p678
saa(lp679
S'bt'
p680
a(dp681
S'bootloader'
p682
(dp683
S'extended_fuses'
p684
S'0x00'
p685
sS'high_fuses'
p686
S'0xdd'
p687
sS'low_fuses'
p688
S'0xff'
p689
sS'lock_bits'
p690
S'0x0F'
p691
sS'file'
p692
S'ATmegaBOOT_168.hex'
p693
sS'path'
p694
S'bt'
p695
sS'unlock_bits'
p696
S'0x3F'
p697
ssS'upload'
p698
(dp699
S'protocol'
p700
S'arduino'
p701
sS'maximum_size'
p702
S'14336'
p703
sS'speed'
p704
S'19200'
p705
sS'disable_flushing'
p706
S'true'
p707
ssS'build'
p708
(dp709
S'core'
p710
S'arduino'
p711
sS'mcu'
p712
S'atmega168'
p713
sS'f_cpu'
p714
S'16000000L'
p715
sS'variant'
p716
S'eightanaloginputs'
p717
ssS'name'
p718
S'Arduino BT w/ ATmega168'
p719
saa(lp720
S'LilyPadUSB'
p721
a(dp722
S'bootloader'
p723
(dp724
S'extended_fuses'
p725
S'0xce'
p726
sS'high_fuses'
p727
S'0xd8'
p728
sS'low_fuses'
p729
S'0xff'
p730
sS'lock_bits'
p731
S'0x2F'
p732
sS'file'
p733
S'Caterina-LilyPadUSB.hex'
p734
sS'path'
p735
S'caterina-LilyPadUSB'
p736
sS'unlock_bits'
p737
S'0x3F'
p738
ssS'upload'
p739
(dp740
S'protocol'
p741
S'avr109'
p742
sS'maximum_size'
p743
S'28672'
p744
sS'speed'
p745
S'57600'
p746
sS'disable_flushing'
p747
S'true'
p748
ssS'build'
p749
(dp750
S'core'
p751
S'arduino'
p752
sS'f_cpu'
p753
S'8000000L'
p754
sS'vid'
p755
S'0x1B4F'
p756
sS'pid'
p757
S'0x9208'
p758
sS'variant'
p759
S'leonardo'
p760
sS'mcu'
p761
S'atmega32u4'
p762
ssS'name'
p763
S'LilyPad Arduino USB'
p764
saa(lp765
S'lilypad328'
p766
a(dp767
S'bootloader'
p768
(dp769
S'extended_fuses'
p770
S'0x05'
p771
sS'high_fuses'
p772
S'0xDA'
p773
sS'low_fuses'
p774
S'0xFF'
p775
sS'lock_bits'
p776
S'0x0F'
p777
sS'file'
p778
S'ATmegaBOOT_168_atmega328_pro_8MHz.hex'
p779
sS'path'
p780
S'atmega'
p781
sS'unlock_bits'
p782
S'0x3F'
p783
ssS'upload'
p784
(dp785
S'protocol'
p786
S'arduino'
p787
sS'maximum_size'
p788
S'30720'
p789
sS'speed'
p790
S'57600'
p791
ssS'build'
p792
(dp793
S'core'
p794
S'arduino'
p795
sS'mcu'
p796
S'atmega328p'
p797
sS'f_cpu'
p798
S'8000000L'
p799
sS'variant'
p800
S'standard'
p801
ssS'name'
p802
S'LilyPad Arduino w/ ATmega328'
p803
saa(lp804
S'lilypad'
p805
a(dp806
S'bootloader'
p807
(dp808
S'extended_fuses'
p809
S'0x00'
p810
sS'high_fuses'
p811
S'0xdd'
p812
sS'low_fuses'
p813
S'0xe2'
p814
sS'lock_bits'
p815
S'0x0F'
p816
sS'file'
p817
S'LilyPadBOOT_168.hex'
p818
sS'path'
p819
S'lilypad'
p820
sS'unlock_bits'
p821
S'0x3F'
p822
ssS'upload'
p823
(dp824
S'protocol'
p825
S'arduino'
p826
sS'maximum_size'
p827
S'14336'
p828
sS'speed'
p829
S'19200'
p830
ssS'build'
p831
(dp832
S'core'
p833
S'arduino'
p834
sS'mcu'
p835
S'atmega168'
p836
sS'f_cpu'
p837
S'8000000L'
p838
sS'variant'
p839
S'standard'
p840
ssS'name'
p841
S'LilyPad Arduino w/ ATmega168'
p842
saa(lp843
S'pro5v328'
p844
a(dp845
S'bootloader'
p846
(dp847
S'extended_fuses'
p848
S'0x05'
p849
sS'high_fuses'
p850
S'0xDA'
p851
sS'low_fuses'
p852
S'0xFF'
p853
sS'lock_bits'
p854
S'0x0F'
p855
sS'file'
p856
S'ATmegaBOOT_168_atmega328.hex'
p857
sS'path'
p858
S'atmega'
p859
sS'unlock_bits'
p860
S'0x3F'
p861
ssS'upload'
p862
(dp863
S'protocol'
p864
S'arduino'
p865
sS'maximum_size'
p866
S'30720'
p867
sS'speed'
p868
S'57600'
p869
ssS'build'
p870
(dp871
S'core'
p872
S'arduino'
p873
sS'mcu'
p874
S'atmega328p'
p875
sS'f_cpu'
p876
S'16000000L'
p877
sS'variant'
p878
S'standard'
p879
ssS'name'
p880
S'Arduino Pro or Pro Mini (5V, 16 MHz) w/ ATmega328'
p881
saa(lp882
S'pro5v'
p883
a(dp884
S'bootloader'
p885
(dp886
S'extended_fuses'
p887
S'0x00'
p888
sS'high_fuses'
p889
S'0xdd'
p890
sS'low_fuses'
p891
S'0xff'
p892
sS'lock_bits'
p893
S'0x0F'
p894
sS'file'
p895
S'ATmegaBOOT_168_diecimila.hex'
p896
sS'path'
p897
S'atmega'
p898
sS'unlock_bits'
p899
S'0x3F'
p900
ssS'upload'
p901
(dp902
S'protocol'
p903
S'arduino'
p904
sS'maximum_size'
p905
S'14336'
p906
sS'speed'
p907
S'19200'
p908
ssS'build'
p909
(dp910
S'core'
p911
S'arduino'
p912
sS'mcu'
p913
S'atmega168'
p914
sS'f_cpu'
p915
S'16000000L'
p916
sS'variant'
p917
S'standard'
p918
ssS'name'
p919
S'Arduino Pro or Pro Mini (5V, 16 MHz) w/ ATmega168'
p920
saa(lp921
S'pro328'
p922
a(dp923
S'bootloader'
p924
(dp925
S'extended_fuses'
p926
S'0x05'
p927
sS'high_fuses'
p928
S'0xDA'
p929
sS'low_fuses'
p930
S'0xFF'
p931
sS'lock_bits'
p932
S'0x0F'
p933
sS'file'
p934
S'ATmegaBOOT_168_atmega328_pro_8MHz.hex'
p935
sS'path'
p936
S'atmega'
p937
sS'unlock_bits'
p938
S'0x3F'
p939
ssS'upload'
p940
(dp941
S'protocol'
p942
S'arduino'
p943
sS'maximum_size'
p944
S'30720'
p945
sS'speed'
p946
S'57600'
p947
ssS'build'
p948
(dp949
S'core'
p950
S'arduino'
p951
sS'mcu'
p952
S'atmega328p'
p953
sS'f_cpu'
p954
S'8000000L'
p955
sS'variant'
p956
S'standard'
p957
ssS'name'
p958
S'Arduino Pro or Pro Mini (3.3V, 8 MHz) w/ ATmega328'
p959
saa(lp960
S'pro'
p961
a(dp962
S'bootloader'
p963
(dp964
S'extended_fuses'
p965
S'0x00'
p966
sS'high_fuses'
p967
S'0xdd'
p968
sS'low_fuses'
p969
S'0xc6'
p970
sS'lock_bits'
p971
S'0x0F'
p972
sS'file'
p973
S'ATmegaBOOT_168_pro_8MHz.hex'
p974
sS'path'
p975
S'atmega'
p976
sS'unlock_bits'
p977
S'0x3F'
p978
ssS'upload'
p979
(dp980
S'protocol'
p981
S'arduino'
p982
sS'maximum_size'
p983
S'14336'
p984
sS'speed'
p985
S'19200'
p986
ssS'build'
p987
(dp988
S'core'
p989
S'arduino'
p990
sS'mcu'
p991
S'atmega168'
p992
sS'f_cpu'
p993
S'8000000L'
p994
sS'variant'
p995
S'standard'
p996
ssS'name'
p997
S'Arduino Pro or Pro Mini (3.3V, 8 MHz) w/ ATmega168'
p998
saa(lp999
S'atmega168'
p1000
a(dp1001
S'bootloader'
p1002
(dp1003
S'extended_fuses'
p1004
S'0x00'
p1005
sS'high_fuses'
p1006
S'0xdd'
p1007
sS'low_fuses'
p1008
S'0xff'
p1009
sS'lock_bits'
p1010
S'0x0F'
p1011
sS'file'
p1012
S'ATmegaBOOT_168_ng.hex'
p1013
sS'path'
p1014
S'atmega'
p1015
sS'unlock_bits'
p1016
S'0x3F'
p1017
ssS'upload'
p1018
(dp1019
S'protocol'
p1020
S'arduino'
p1021
sS'maximum_size'
p1022
S'14336'
p1023
sS'speed'
p1024
S'19200'
p1025
ssS'build'
p1026
(dp1027
S'core'
p1028
S'arduino'
p1029
sS'mcu'
p1030
S'atmega168'
p1031
sS'f_cpu'
p1032
S'16000000L'
p1033
sS'variant'
p1034
S'standard'
p1035
ssS'name'
p1036
S'Arduino NG or older w/ ATmega168'
p1037
saa(lp1038
S'atmega8'
p1039
a(dp1040
S'bootloader'
p1041
(dp1042
S'high_fuses'
p1043
S'0xca'
p1044
sS'low_fuses'
p1045
S'0xdf'
p1046
sS'lock_bits'
p1047
S'0x0F'
p1048
sS'file'
p1049
S'ATmegaBOOT-prod-firmware-2009-11-07.hex'
p1050
sS'path'
p1051
S'atmega8'
p1052
sS'unlock_bits'
p1053
S'0x3F'
p1054
ssS'upload'
p1055
(dp1056
S'protocol'
p1057
S'arduino'
p1058
sS'maximum_size'
p1059
S'7168'
p1060
sS'speed'
p1061
S'19200'
p1062
ssS'build'
p1063
(dp1064
S'core'
p1065
S'arduino'
p1066
sS'mcu'
p1067
S'atmega8'
p1068
sS'f_cpu'
p1069
S'16000000L'
p1070
sS'variant'
p1071
S'standard'
p1072
ssS'name'
p1073
S'Arduino NG or older w/ ATmega8'
p1074
saa(lp1075
S'robotControl'
p1076
a(dp1077
S'bootloader'
p1078
(dp1079
S'extended_fuses'
p1080
S'0xcb'
p1081
sS'high_fuses'
p1082
S'0xd8'
p1083
sS'low_fuses'
p1084
S'0xff'
p1085
sS'lock_bits'
p1086
S'0x2F'
p1087
sS'file'
p1088
S'Caterina-Robot-Control.hex'
p1089
sS'path'
p1090
S'caterina-Arduino_Robot'
p1091
sS'unlock_bits'
p1092
S'0x3F'
p1093
ssS'upload'
p1094
(dp1095
S'protocol'
p1096
S'avr109'
p1097
sS'maximum_size'
p1098
S'28672'
p1099
sS'speed'
p1100
S'57600'
p1101
sS'disable_flushing'
p1102
S'true'
p1103
ssS'build'
p1104
(dp1105
S'core'
p1106
S'robot'
p1107
sS'f_cpu'
p1108
S'16000000L'
p1109
sS'vid'
p1110
S'0x2341'
p1111
sS'pid'
p1112
S'0x8038'
p1113
sS'variant'
p1114
S'robot_control'
p1115
sS'mcu'
p1116
S'atmega32u4'
p1117
ssS'name'
p1118
S'Arduino Robot Control'
p1119
saa(lp1120
S'robotMotor'
p1121
a(dp1122
S'bootloader'
p1123
(dp1124
S'extended_fuses'
p1125
S'0xcb'
p1126
sS'high_fuses'
p1127
S'0xd8'
p1128
sS'low_fuses'
p1129
S'0xff'
p1130
sS'lock_bits'
p1131
S'0x2F'
p1132
sS'file'
p1133
S'Caterina-Robot-Motor.hex'
p1134
sS'path'
p1135
S'caterina-Arduino_Robot'
p1136
sS'unlock_bits'
p1137
S'0x3F'
p1138
ssS'upload'
p1139
(dp1140
S'protocol'
p1141
S'avr109'
p1142
sS'maximum_size'
p1143
S'28672'
p1144
sS'speed'
p1145
S'57600'
p1146
sS'disable_flushing'
p1147
S'true'
p1148
ssS'build'
p1149
(dp1150
S'core'
p1151
S'robot'
p1152
sS'f_cpu'
p1153
S'16000000L'
p1154
sS'vid'
p1155
S'0x2341'
p1156
sS'pid'
p1157
S'0x8039'
p1158
sS'variant'
p1159
S'robot_motor'
p1160
sS'mcu'
p1161
S'atmega32u4'
p1162
ssS'name'
p1163
S'Arduino Robot Motor'
p1164
saatp1165
Rp1166
(dp1167
S'default'
p1168
S'uno'
p1169
sbtp1170
a(S'used_libs'
p1171
(lp1172
S'/usr/share/arduino/libraries/Servo'
p1173
aS'lib/TimerOne'
p1174
aS'lib/Omni3MD'
p1175
aS'/usr/share/arduino/libraries/Wire'
p1176
aS'/usr/share/arduino/hardware/arduino/cores/arduino'
p1177
atp1178
a(S'make'
p1179
S'/usr/bin/make'
p1180
tp1181
a(S'build_dir'
p1182
S'.build/mega2560'
p1183
tp1184
a(S'cc'
p1185
S'/usr/share/arduino/hardware/tools/avr/bin/avr-gcc'
p1186
tp1187
a(S'cflags'
p1188
g2
(g3
g4
(lp1189
tp1190
Rp1191
tp1192
a(S'cxxflags'
p1193
g2
(g3
g4
(lp1194
S'-fno-exceptions'
p1195
atp1196
Rp1197
tp1198
a(S'arduino_variants_dir'
p1199
S'/usr/share/arduino/hardware/arduino/variants'
p1200
tp1201
a(S'stty'
p1202
S'/bin/stty'
p1203
tp1204
a(S'version.txt'
p1205
S'/usr/share/arduino/lib/version.txt'
p1206
tp1207
a(S'arduino_core_dir'
p1208
g1177
tp1209
a(S'boards.txt'
p1210
S'/usr/share/arduino/hardware/arduino/boards.txt'
p1211
tp1212
a(S'avrdude.conf'
p1213
S'/usr/share/arduino/hardware/tools/avrdude.conf'
p1214
tp1215
a(g51
g2
(g3
g4
(lp1216
S'.build/mega2560/src/dependencies.d'
p1217
aS'.build/mega2560/arduino/dependencies.d'
p1218
aS'.build/mega2560/Servo/dependencies.d'
p1219
aS'.build/mega2560/TimerOne/dependencies.d'
p1220
aS'.build/mega2560/Omni3MD/dependencies.d'
p1221
aS'.build/mega2560/Wire/dependencies.d'
p1222
atp1223
Rp1224
tp1225
a.